target datalayout = "e-m:e-p270:32:32-p271:32:32-p272:64:64-i64:64-i128:128-f80:128-n8:16:32:64-S128"
target triple = "x86_64-unknown-linux-gnu"

%struct.BlockCopyCallState = type { ptr, i64, i64, i32, i64, i8, ptr, ptr, ptr, i8, %struct.QemuCoSleep, i8, %struct.anon.3, i8, i32 }
%struct.QemuCoSleep = type { ptr }
%struct.anon.3 = type { ptr, ptr }

; Function Attrs: nounwind sspstrong uwtable
define dso_local ptr @block_copy_async(ptr noundef %s, i64 noundef %offset, i64 noundef %bytes, i32 noundef %max_workers, i64 noundef %max_chunk, ptr noundef %cb, ptr noundef %cb_opaque) #0 {
entry:
  %s.addr = alloca ptr, align 8
  %offset.addr = alloca i64, align 8
  %bytes.addr = alloca i64, align 8
  %max_workers.addr = alloca i32, align 4
  %max_chunk.addr = alloca i64, align 8
  %cb.addr = alloca ptr, align 8
  %cb_opaque.addr = alloca ptr, align 8
  %call_state = alloca ptr, align 8
  %.compoundliteral = alloca %struct.BlockCopyCallState, align 8
  store ptr %s, ptr %s.addr, align 8
  store i64 %offset, ptr %offset.addr, align 8
  store i64 %bytes, ptr %bytes.addr, align 8
  store i32 %max_workers, ptr %max_workers.addr, align 4
  store i64 %max_chunk, ptr %max_chunk.addr, align 8
  store ptr %cb, ptr %cb.addr, align 8
  store ptr %cb_opaque, ptr %cb_opaque.addr, align 8
  %call = call noalias ptr @g_malloc_n(i64 noundef 1, i64 noundef 120) #9
  store ptr %call, ptr %call_state, align 8
  %0 = load ptr, ptr %call_state, align 8
  %s1 = getelementptr inbounds %struct.BlockCopyCallState, ptr %.compoundliteral, i32 0, i32 0
  %1 = load ptr, ptr %s.addr, align 8
  store ptr %1, ptr %s1, align 8
  %offset2 = getelementptr inbounds %struct.BlockCopyCallState, ptr %.compoundliteral, i32 0, i32 1
  %2 = load i64, ptr %offset.addr, align 8
  store i64 %2, ptr %offset2, align 8
  %bytes3 = getelementptr inbounds %struct.BlockCopyCallState, ptr %.compoundliteral, i32 0, i32 2
  %3 = load i64, ptr %bytes.addr, align 8
  store i64 %3, ptr %bytes3, align 8
  %max_workers4 = getelementptr inbounds %struct.BlockCopyCallState, ptr %.compoundliteral, i32 0, i32 3
  %4 = load i32, ptr %max_workers.addr, align 4
  store i32 %4, ptr %max_workers4, align 8
  %max_chunk5 = getelementptr inbounds %struct.BlockCopyCallState, ptr %.compoundliteral, i32 0, i32 4
  %5 = load i64, ptr %max_chunk.addr, align 8
  store i64 %5, ptr %max_chunk5, align 8
  %ignore_ratelimit = getelementptr inbounds %struct.BlockCopyCallState, ptr %.compoundliteral, i32 0, i32 5
  store i8 0, ptr %ignore_ratelimit, align 8
  %cb6 = getelementptr inbounds %struct.BlockCopyCallState, ptr %.compoundliteral, i32 0, i32 6
  %6 = load ptr, ptr %cb.addr, align 8
  store ptr %6, ptr %cb6, align 8
  %cb_opaque7 = getelementptr inbounds %struct.BlockCopyCallState, ptr %.compoundliteral, i32 0, i32 7
  %7 = load ptr, ptr %cb_opaque.addr, align 8
  store ptr %7, ptr %cb_opaque7, align 8
  %co = getelementptr inbounds %struct.BlockCopyCallState, ptr %.compoundliteral, i32 0, i32 8
  %8 = load ptr, ptr %call_state, align 8
  %call8 = call ptr @qemu_coroutine_create(ptr noundef @block_copy_async_co_entry, ptr noundef %8)
  store ptr %call8, ptr %co, align 8
  %finished = getelementptr inbounds %struct.BlockCopyCallState, ptr %.compoundliteral, i32 0, i32 9
  store i8 0, ptr %finished, align 8
  %sleep = getelementptr inbounds %struct.BlockCopyCallState, ptr %.compoundliteral, i32 0, i32 10
  call void @llvm.memset.p0.i64(ptr align 8 %sleep, i8 0, i64 8, i1 false)
  %cancelled = getelementptr inbounds %struct.BlockCopyCallState, ptr %.compoundliteral, i32 0, i32 11
  store i8 0, ptr %cancelled, align 8
  %list = getelementptr inbounds %struct.BlockCopyCallState, ptr %.compoundliteral, i32 0, i32 12
  call void @llvm.memset.p0.i64(ptr align 8 %list, i8 0, i64 16, i1 false)
  %error_is_read = getelementptr inbounds %struct.BlockCopyCallState, ptr %.compoundliteral, i32 0, i32 13
  store i8 0, ptr %error_is_read, align 8
  %ret = getelementptr inbounds %struct.BlockCopyCallState, ptr %.compoundliteral, i32 0, i32 14
  store i32 0, ptr %ret, align 4
  call void @llvm.memcpy.p0.p0.i64(ptr align 8 %0, ptr align 8 %.compoundliteral, i64 120, i1 false)
  %9 = load ptr, ptr %call_state, align 8
  %co9 = getelementptr inbounds %struct.BlockCopyCallState, ptr %9, i32 0, i32 8
  %10 = load ptr, ptr %co9, align 8
  call void @qemu_coroutine_enter(ptr noundef %10)
  %11 = load ptr, ptr %call_state, align 8
  ret ptr %11
}