; Function Attrs: nounwind sspstrong uwtable
define dso_local noundef ptr @block_copy_async(ptr noundef %s, i64 noundef %offset, i64 noundef %bytes, i32 noundef %max_workers, i64 noundef %max_chunk, ptr noundef %cb, ptr noundef %cb_opaque) local_unnamed_addr #0 {
entry:
  %.compoundliteral.sroa.13 = alloca [23 x i8], align 1
  %call = tail call noalias dereferenceable_or_null(120) ptr @g_malloc_n(i64 noundef 1, i64 noundef 120) #16
  %call8 = tail call ptr @qemu_coroutine_create(ptr noundef nonnull @block_copy_async_co_entry, ptr noundef %call) #14
  %.compoundliteral.sroa.13.7.list.sroa_idx8 = getelementptr inbounds nuw i8, ptr %.compoundliteral.sroa.13, i64 7
  call void @llvm.memset.p0.i64(ptr noundef nonnull align 1 dereferenceable(16) %.compoundliteral.sroa.13.7.list.sroa_idx8, i8 0, i64 16, i1 false)
  store ptr %s, ptr %call, align 8
  %.compoundliteral.sroa.2.0..sroa_idx = getelementptr inbounds nuw i8, ptr %call, i64 8
  store i64 %offset, ptr %.compoundliteral.sroa.2.0..sroa_idx, align 8
  %.compoundliteral.sroa.3.0..sroa_idx = getelementptr inbounds nuw i8, ptr %call, i64 16
  store i64 %bytes, ptr %.compoundliteral.sroa.3.0..sroa_idx, align 8
  %.compoundliteral.sroa.4.0..sroa_idx = getelementptr inbounds nuw i8, ptr %call, i64 24
  store i32 %max_workers, ptr %.compoundliteral.sroa.4.0..sroa_idx, align 8
  %.compoundliteral.sroa.51.0..sroa_idx = getelementptr inbounds nuw i8, ptr %call, i64 32
  store i64 %max_chunk, ptr %.compoundliteral.sroa.51.0..sroa_idx, align 8
  %.compoundliteral.sroa.6.0..sroa_idx = getelementptr inbounds nuw i8, ptr %call, i64 40
  store i8 0, ptr %.compoundliteral.sroa.6.0..sroa_idx, align 8
  %.compoundliteral.sroa.72.0..sroa_idx = getelementptr inbounds nuw i8, ptr %call, i64 48
  store ptr %cb, ptr %.compoundliteral.sroa.72.0..sroa_idx, align 8
  %.compoundliteral.sroa.8.0..sroa_idx = getelementptr inbounds nuw i8, ptr %call, i64 56
  store ptr %cb_opaque, ptr %.compoundliteral.sroa.8.0..sroa_idx, align 8
  %.compoundliteral.sroa.9.0..sroa_idx = getelementptr inbounds nuw i8, ptr %call, i64 64
  store ptr %call8, ptr %.compoundliteral.sroa.9.0..sroa_idx, align 8
  %.compoundliteral.sroa.10.0..sroa_idx = getelementptr inbounds nuw i8, ptr %call, i64 72
  store i8 0, ptr %.compoundliteral.sroa.10.0..sroa_idx, align 8
  %.compoundliteral.sroa.11.sroa.1.0..compoundliteral.sroa.11.0..sroa_idx.sroa_idx = getelementptr inbounds nuw i8, ptr %call, i64 80
  store i64 0, ptr %.compoundliteral.sroa.11.sroa.1.0..compoundliteral.sroa.11.0..sroa_idx.sroa_idx, align 1
  %.compoundliteral.sroa.12.0..sroa_idx = getelementptr inbounds nuw i8, ptr %call, i64 88
  store i8 0, ptr %.compoundliteral.sroa.12.0..sroa_idx, align 8
  %.compoundliteral.sroa.13.0..sroa_idx = getelementptr inbounds nuw i8, ptr %call, i64 89
  call void @llvm.memcpy.p0.p0.i64(ptr noundef nonnull align 1 dereferenceable(23) %.compoundliteral.sroa.13.0..sroa_idx, ptr noundef nonnull align 1 dereferenceable(23) %.compoundliteral.sroa.13, i64 23, i1 false)
  %.compoundliteral.sroa.14.0..sroa_idx = getelementptr inbounds nuw i8, ptr %call, i64 112
  store i8 0, ptr %.compoundliteral.sroa.14.0..sroa_idx, align 8
  %.compoundliteral.sroa.153.0..sroa_idx = getelementptr inbounds nuw i8, ptr %call, i64 116
  store i32 0, ptr %.compoundliteral.sroa.153.0..sroa_idx, align 4
  tail call void @qemu_coroutine_enter(ptr noundef %call8) #14
  ret ptr %call
}